(lp1
(lp2
(lp3
I0
a(dp4
I0
F0.44640000000000002
sI1
F0.44010000000000005
sI2
F0.43520000000000003
sI3
F0.43430000000000002
sI4
F0.43200000000000005
sI5
F0.43179999999999996
sI6
F0.43089999999999995
sI7
F0.43140000000000001
sI8
F0.43110000000000004
sI9
F0.42830000000000001
saF0.43330000000000002
aF62.427842140197754
aa(lp5
I1
a(dp6
I0
F0.25049999999999994
sI1
F0.23350000000000004
sI2
F0.14890000000000003
sI3
F0.14559999999999995
sI4
F0.14400000000000002
sI5
F0.14359999999999995
sI6
F0.13919999999999999
sI7
F0.14280000000000004
sI8
F0.13849999999999996
sI9
F0.13680000000000003
saF0.13529999999999998
aF130.16888809204102
aa(lp7
I2
a(dp8
I0
F0.092199999999999949
sI1
F0.079600000000000004
sI2
F0.067400000000000015
sI3
F0.061100000000000043
sI4
F0.061100000000000043
sI5
F0.061699999999999977
sI6
F0.054400000000000004
sI7
F0.054300000000000015
sI8
F0.049799999999999955
sI9
F0.050200000000000022
saF0.044599999999999973
aF435.31710481643677
aa(lp9
I3
a(dp10
I0
F0.096600000000000019
sI1
F0.084899999999999975
sI2
F0.068699999999999983
sI3
F0.059799999999999964
sI4
F0.064799999999999969
sI5
F0.060400000000000009
sI6
F0.053899999999999948
sI7
F0.049499999999999988
sI8
F0.050499999999999989
sI9
F0.051000000000000045
saF0.046799999999999953
aF912.58843898773193
aa(lp11
I4
a(dp12
I0
F0.16990000000000005
sI1
F0.127
sI2
F0.14580000000000004
sI3
F0.087099999999999955
sI4
F0.081799999999999984
sI5
F0.077500000000000013
sI6
F0.071699999999999986
sI7
F0.077699999999999991
sI8
F0.071100000000000052
sI9
F0.062699999999999978
saF0.060499999999999998
aF1359.8270978927612
aaa(lp13
(lp14
I0
a(dp15
I0
F0.69520000000000004
sI1
F0.66379999999999995
sI2
F0.67070000000000007
sI3
F0.64450000000000007
sI4
F0.49519999999999997
sI5
F0.46030000000000004
sI6
F0.45289999999999997
sI7
F0.46750000000000003
sI8
F0.47499999999999998
sI9
F0.47689999999999999
saF0.47689999999999999
aF721.44076418876648
aa(lp16
I1
a(dp17
I0
F0.49050000000000005
sI1
F0.35709999999999997
sI2
F0.34260000000000002
sI3
F0.34009999999999996
sI4
F0.33640000000000003
sI5
F0.34389999999999998
sI6
F0.33879999999999999
sI7
F0.33530000000000004
sI8
F0.33160000000000001
sI9
F0.33189999999999997
saF0.31730000000000003
aF400.40541195869446
aa(lp18
I2
a(dp19
I0
F0.70579999999999998
sI1
F0.67100000000000004
sI2
F0.51619999999999999
sI3
F0.42900000000000005
sI4
F0.43020000000000003
sI5
F0.42759999999999998
sI6
F0.4194
sI7
F0.41849999999999998
sI8
F0.41830000000000001
sI9
F0.41279999999999994
saF0.40900000000000003
aF292.62949705123901
aa(lp20
I3
a(dp21
I0
F0.33540000000000003
sI1
F0.32689999999999997
sI2
F0.32340000000000002
sI3
F0.32489999999999997
sI4
F0.32120000000000004
sI5
F0.31999999999999995
sI6
F0.31850000000000001
sI7
F0.31830000000000003
sI8
F0.31779999999999997
sI9
F0.31710000000000005
saF0.31459999999999999
aF177.97274780273438
aa(lp22
I4
a(dp23
I0
F0.10070000000000001
sI1
F0.080799999999999983
sI2
F0.071100000000000052
sI3
F0.066999999999999948
sI4
F0.064999999999999947
sI5
F0.061699999999999977
sI6
F0.065599999999999992
sI7
F0.06140000000000001
sI8
F0.062699999999999978
sI9
F0.060799999999999965
saF0.057599999999999985
aF111.34008002281189
aaa(lp24
(lp25
I0
a(dp26
I0
F0.91259999999999997
sI1
F0.91310000000000002
sI2
F0.91310000000000002
sI3
F0.9113
sI4
F0.9103
sI5
F0.90800000000000003
sI6
F0.90620000000000001
sI7
F0.90470000000000006
sI8
F0.90449999999999997
sI9
F0.90390000000000004
sI10
F0.90380000000000005
sI11
F0.90359999999999996
sI12
F0.9032
sI13
F0.90210000000000001
sI14
F0.90110000000000001
sI15
F0.90049999999999997
sI16
F0.89890000000000003
sI17
F0.89680000000000004
sI18
F0.89510000000000001
sI19
F0.89329999999999998
sI20
F0.89139999999999997
sI21
F0.88929999999999998
sI22
F0.8861
sI23
F0.88250000000000006
sI24
F0.87970000000000004
saF0.88090000000000002
aF805.4094979763031
aa(lp27
I1
a(dp28
I0
F0.91769999999999996
sI1
F0.90759999999999996
sI2
F0.89549999999999996
sI3
F0.89419999999999999
sI4
F0.89219999999999999
sI5
F0.88849999999999996
sI6
F0.8911
sI7
F0.8841
sI8
F0.87329999999999997
sI9
F0.86529999999999996
sI10
F0.85680000000000001
sI11
F0.84889999999999999
sI12
F0.83950000000000002
sI13
F0.83040000000000003
sI14
F0.82130000000000003
sI15
F0.81540000000000001
sI16
F0.80840000000000001
sI17
F0.80089999999999995
sI18
F0.79469999999999996
sI19
F0.78949999999999998
sI20
F0.78679999999999994
sI21
F0.7833
sI22
F0.78079999999999994
sI23
F0.77910000000000001
sI24
F0.77749999999999997
saF0.78689999999999993
aF785.21174502372742
aa(lp29
I2
a(dp30
I0
F0.89400000000000002
sI1
F0.86360000000000003
sI2
F0.83299999999999996
sI3
F0.80030000000000001
sI4
F0.77360000000000007
sI5
F0.74459999999999993
sI6
F0.72629999999999995
sI7
F0.71179999999999999
sI8
F0.69920000000000004
sI9
F0.67999999999999994
sI10
F0.66649999999999998
sI11
F0.65179999999999993
sI12
F0.63529999999999998
sI13
F0.61719999999999997
sI14
F0.60010000000000008
sI15
F0.58339999999999992
sI16
F0.56689999999999996
sI17
F0.55330000000000001
sI18
F0.5423
sI19
F0.53259999999999996
sI20
F0.52510000000000001
sI21
F0.51770000000000005
sI22
F0.51119999999999999
sI23
F0.50639999999999996
sI24
F0.50249999999999995
saF0.50370000000000004
aF761.27820086479187
aa(lp31
I3
a(dp32
I0
F0.63690000000000002
sI1
F0.46919999999999995
sI2
F0.38870000000000005
sI3
F0.28979999999999995
sI4
F0.25849999999999995
sI5
F0.23650000000000004
sI6
F0.21899999999999997
sI7
F0.18659999999999999
sI8
F0.14580000000000004
sI9
F0.13170000000000004
sI10
F0.12490000000000001
sI11
F0.11929999999999996
sI12
F0.11480000000000001
sI13
F0.11140000000000005
sI14
F0.1079
sI15
F0.10309999999999997
sI16
F0.099999999999999978
sI17
F0.099099999999999966
sI18
F0.097199999999999953
sI19
F0.09540000000000004
sI20
F0.09319999999999995
sI21
F0.092899999999999983
sI22
F0.091199999999999948
sI23
F0.089700000000000002
sI24
F0.088500000000000023
saF0.082999999999999963
aF817.32167792320251
aa(lp33
I4
a(dp34
I0
F0.13449999999999995
sI1
F0.098099999999999965
sI2
F0.088199999999999945
sI3
F0.081799999999999984
sI4
F0.078999999999999959
sI5
F0.075600000000000001
sI6
F0.071599999999999997
sI7
F0.069999999999999951
sI8
F0.069899999999999962
sI9
F0.067999999999999949
sI10
F0.066100000000000048
sI11
F0.063999999999999946
sI12
F0.063799999999999968
sI13
F0.064400000000000013
sI14
F0.061499999999999999
sI15
F0.061799999999999966
sI16
F0.061300000000000021
sI17
F0.060400000000000009
sI18
F0.059799999999999964
sI19
F0.060400000000000009
sI20
F0.060100000000000042
sI21
F0.058200000000000029
sI22
F0.060699999999999976
sI23
F0.058899999999999952
sI24
F0.059699999999999975
saF0.054100000000000037
aF774.89111089706421
aa(lp35
I5
a(dp36
I0
F0.10060000000000002
sI1
F0.08109999999999995
sI2
F0.0746
sI3
F0.068799999999999972
sI4
F0.066100000000000048
sI5
F0.067400000000000015
sI6
F0.064500000000000002
sI7
F0.068899999999999961
sI8
F0.064999999999999947
sI9
F0.062999999999999945
sI10
F0.061000000000000054
sI11
F0.061699999999999977
sI12
F0.058300000000000018
sI13
F0.064799999999999969
sI14
F0.064200000000000035
sI15
F0.060699999999999976
sI16
F0.059799999999999964
sI17
F0.059499999999999997
sI18
F0.059300000000000019
sI19
F0.060899999999999954
sI20
F0.055300000000000016
sI21
F0.062599999999999989
sI22
F0.058300000000000018
sI23
F0.054599999999999982
sI24
F0.05600000000000005
saF0.053599999999999981
aF737.06884908676147
aaa(lp37
(lp38
I0
a(dp39
I0
F0.2329
sI1
F0.23429999999999995
sI2
F0.1986
sI3
F0.18710000000000004
sI4
F0.17620000000000002
sI5
F0.14610000000000001
sI6
F0.16510000000000002
sI7
F0.16269999999999996
sI8
F0.15080000000000005
sI9
F0.14080000000000004
saF0.13949999999999996
aF191.98816204071045
aa(lp40
I1
a(dp41
I0
F0.087999999999999967
sI1
F0.0746
sI2
F0.06910000000000005
sI3
F0.065699999999999981
sI4
F0.062000000000000055
sI5
F0.063400000000000012
sI6
F0.059400000000000008
sI7
F0.060499999999999998
sI8
F0.059699999999999975
sI9
F0.056899999999999951
saF0.05259999999999998
aF111.0194399356842
aa(lp42
I2
a(dp43
I0
F0.13
sI1
F0.095099999999999962
sI2
F0.083200000000000052
sI3
F0.076500000000000012
sI4
F0.074899999999999967
sI5
F0.071100000000000052
sI6
F0.067599999999999993
sI7
F0.067799999999999971
sI8
F0.064999999999999947
sI9
F0.063300000000000023
saF0.061599999999999988
aF103.5216338634491
aa(lp44
I3
a(dp45
I0
F0.2319
sI1
F0.19830000000000003
sI2
F0.18540000000000001
sI3
F0.1784
sI4
F0.17090000000000005
sI5
F0.16779999999999995
sI6
F0.16400000000000003
sI7
F0.16080000000000005
sI8
F0.15900000000000003
sI9
F0.15749999999999997
saF0.16039999999999999
aF100.66361594200134
aa(lp46
I4
a(dp47
I0
F0.38449999999999995
sI1
F0.24199999999999999
sI2
F0.20669999999999999
sI3
F0.19469999999999998
sI4
F0.18689999999999996
sI5
F0.18210000000000004
sI6
F0.17659999999999998
sI7
F0.17520000000000002
sI8
F0.17310000000000003
sI9
F0.17149999999999999
saF0.16820000000000002
aF99.761203050613403
aaa(lp48
(lp49
I0
a(dp50
I0
F0.17659999999999998
saF0.17459999999999998
aF11.330549955368042
aa(lp51
I1
a(dp52
I0
F0.094799999999999995
sI1
F0.080099999999999949
sI2
F0.070100000000000051
sI3
F0.066100000000000048
sI4
F0.064999999999999947
sI5
F0.059599999999999986
sI6
F0.062000000000000055
sI7
F0.059400000000000008
sI8
F0.057699999999999974
sI9
F0.058899999999999952
saF0.052200000000000024
aF110.96471405029297
aa(lp53
I2
a(dp54
I0
F0.090600000000000014
sI1
F0.076400000000000023
sI2
F0.072699999999999987
sI3
F0.069799999999999973
sI4
F0.065500000000000003
sI5
F0.064400000000000013
sI6
F0.062300000000000022
sI7
F0.0625
sI8
F0.062400000000000011
sI9
F0.060799999999999965
sI10
F0.060100000000000042
sI11
F0.064200000000000035
sI12
F0.057699999999999974
sI13
F0.057599999999999985
sI14
F0.058200000000000029
sI15
F0.057599999999999985
sI16
F0.056599999999999984
sI17
F0.058499999999999996
sI18
F0.058300000000000018
sI19
F0.058899999999999952
sI20
F0.058799999999999963
sI21
F0.057200000000000029
sI22
F0.055100000000000038
sI23
F0.056599999999999984
sI24
F0.055799999999999961
saF0.052400000000000002
aF276.84217810630798
aa(lp55
I3
a(dp56
I0
F0.091199999999999948
sI1
F0.077999999999999958
sI2
F0.073400000000000021
sI3
F0.069899999999999962
sI4
F0.063500000000000001
sI5
F0.063999999999999946
sI6
F0.06030000000000002
sI7
F0.056300000000000017
sI8
F0.056400000000000006
sI9
F0.058699999999999974
sI10
F0.057699999999999974
sI11
F0.058699999999999974
sI12
F0.055300000000000016
sI13
F0.055400000000000005
sI14
F0.056200000000000028
sI15
F0.055300000000000016
sI16
F0.057699999999999974
sI17
F0.054400000000000004
sI18
F0.054400000000000004
sI19
F0.050499999999999989
sI20
F0.055400000000000005
sI21
F0.052499999999999991
sI22
F0.054599999999999982
sI23
F0.052400000000000002
sI24
F0.056699999999999973
sI25
F0.055100000000000038
sI26
F0.053400000000000003
sI27
F0.054200000000000026
sI28
F0.054599999999999982
sI29
F0.054200000000000026
sI30
F0.051899999999999946
sI31
F0.052499999999999991
sI32
F0.05369999999999997
sI33
F0.055200000000000027
sI34
F0.054400000000000004
sI35
F0.054200000000000026
sI36
F0.053899999999999948
sI37
F0.053499999999999992
sI38
F0.052799999999999958
sI39
F0.053899999999999948
sI40
F0.052699999999999969
sI41
F0.053799999999999959
sI42
F0.052000000000000046
sI43
F0.052699999999999969
sI44
F0.052799999999999958
sI45
F0.052100000000000035
sI46
F0.05149999999999999
sI47
F0.055000000000000049
sI48
F0.053799999999999959
sI49
F0.052400000000000002
saF0.047699999999999965
aF553.56744503974915
aa(lp57
I4
a(dp58
I0
F0.089500000000000024
sI1
F0.080699999999999994
sI2
F0.075300000000000034
sI3
F0.070699999999999985
sI4
F0.064599999999999991
sI5
F0.059400000000000008
sI6
F0.061100000000000043
sI7
F0.06140000000000001
sI8
F0.058400000000000007
sI9
F0.059100000000000041
sI10
F0.056300000000000017
sI11
F0.056200000000000028
sI12
F0.057200000000000029
sI13
F0.057599999999999985
sI14
F0.054100000000000037
sI15
F0.052400000000000002
sI16
F0.055499999999999994
sI17
F0.053499999999999992
sI18
F0.052499999999999991
sI19
F0.05259999999999998
sI20
F0.056899999999999951
sI21
F0.053799999999999959
sI22
F0.051599999999999979
sI23
F0.052400000000000002
sI24
F0.051599999999999979
sI25
F0.053499999999999992
sI26
F0.052100000000000035
sI27
F0.052200000000000024
sI28
F0.052499999999999991
sI29
F0.052400000000000002
sI30
F0.050799999999999956
sI31
F0.052200000000000024
sI32
F0.053300000000000014
sI33
F0.053499999999999992
sI34
F0.053599999999999981
sI35
F0.054300000000000015
sI36
F0.052799999999999958
sI37
F0.051599999999999979
sI38
F0.052300000000000013
sI39
F0.052499999999999991
sI40
F0.052100000000000035
sI41
F0.051799999999999957
sI42
F0.05149999999999999
sI43
F0.0504
sI44
F0.051100000000000034
sI45
F0.050200000000000022
sI46
F0.052400000000000002
sI47
F0.050499999999999989
sI48
F0.051100000000000034
sI49
F0.050300000000000011
sI50
F0.049699999999999966
sI51
F0.049399999999999999
sI52
F0.050799999999999956
sI53
F0.051400000000000001
sI54
F0.050799999999999956
sI55
F0.052499999999999991
sI56
F0.054000000000000048
sI57
F0.050699999999999967
sI58
F0.051000000000000045
sI59
F0.052300000000000013
sI60
F0.051400000000000001
sI61
F0.05149999999999999
sI62
F0.050300000000000011
sI63
F0.050799999999999956
sI64
F0.052300000000000013
sI65
F0.051100000000000034
sI66
F0.050499999999999989
sI67
F0.049200000000000021
sI68
F0.050499999999999989
sI69
F0.050799999999999956
sI70
F0.052000000000000046
sI71
F0.051899999999999946
sI72
F0.050100000000000033
sI73
F0.050899999999999945
sI74
F0.05600000000000005
sI75
F0.050300000000000011
sI76
F0.051100000000000034
sI77
F0.0504
sI78
F0.050599999999999978
sI79
F0.051899999999999946
sI80
F0.052400000000000002
sI81
F0.052300000000000013
sI82
F0.052400000000000002
sI83
F0.052400000000000002
sI84
F0.051200000000000023
sI85
F0.052499999999999991
sI86
F0.051599999999999979
sI87
F0.0504
sI88
F0.052899999999999947
sI89
F0.051699999999999968
sI90
F0.052300000000000013
sI91
F0.051599999999999979
sI92
F0.052200000000000024
sI93
F0.050100000000000033
sI94
F0.052799999999999958
sI95
F0.051799999999999957
sI96
F0.050000000000000044
sI97
F0.051699999999999968
sI98
F0.051300000000000012
sI99
F0.050000000000000044
saF0.04390000000000005
aF1113.6543860435486
aaa.